target datalayout = "e-m:e-p270:32:32-p271:32:32-p272:64:64-i64:64-i128:128-f80:128-n8:16:32:64-S128"
target triple = "x86_64-pc-linux-gnu"

@.str.1 = private unnamed_addr constant [101 x i8] c"generated/home/dtcxzyw/WorkSpace/Projects/compilers/llvm-opt-benchmark/bench/hdf5/hdf5/src/H5Pdxpl.c\00", align 1
@H5E_BADVALUE_g = external global i64, align 8
@H5E_PLIST_g = external global i64, align 8
@__func__.H5P__dxfr_btree_split_ratio_dec = private unnamed_addr constant [32 x i8] c"H5P__dxfr_btree_split_ratio_dec\00", align 1
@.str.70 = private unnamed_addr constant [30 x i8] c"double value can't be decoded\00", align 1

; Function Attrs: nounwind uwtable
define internal i32 @H5P__dxfr_btree_split_ratio_dec(ptr noundef %0, ptr noundef %1) #0 {
  %3 = alloca ptr, align 8
  %4 = alloca ptr, align 8
  %5 = alloca ptr, align 8
  %6 = alloca i32, align 4
  %7 = alloca ptr, align 8
  %8 = alloca i32, align 4
  %9 = alloca i8, align 1
  %10 = alloca i64, align 8
  %11 = alloca i64, align 8
  %12 = alloca i64, align 8
  %13 = alloca i64, align 8
  %14 = alloca i64, align 8
  %15 = alloca i64, align 8
  store ptr %0, ptr %3, align 8
  store ptr %1, ptr %4, align 8
  %16 = load ptr, ptr %4, align 8
  store ptr %16, ptr %5, align 8
  %17 = load ptr, ptr %3, align 8
  store ptr %17, ptr %7, align 8
  store i32 0, ptr %8, align 4
  store i8 0, ptr %9, align 1
  %18 = load ptr, ptr %7, align 8
  %19 = load ptr, ptr %18, align 8
  %20 = getelementptr inbounds i8, ptr %19, i32 1
  store ptr %20, ptr %18, align 8
  %21 = load i8, ptr %19, align 1
  %22 = zext i8 %21 to i32
  store i32 %22, ptr %6, align 4
  %23 = load i32, ptr %6, align 4
  %24 = zext i32 %23 to i64
  %25 = icmp ne i64 %24, 8
  br i1 %25, label %26, label %41

26:                                               ; preds = %2
  br label %27

27:                                               ; preds = %26
  br label %28

28:                                               ; preds = %27
  br label %29

29:                                               ; preds = %28
  %30 = load i64, ptr @H5E_PLIST_g, align 8
  %31 = load i64, ptr @H5E_BADVALUE_g, align 8
  %32 = call i32 (ptr, ptr, i32, i64, i64, ptr, ...) @H5E_printf_stack(ptr noundef @.str.1, ptr noundef @__func__.H5P__dxfr_btree_split_ratio_dec, i32 noundef 633, i64 noundef %30, i64 noundef %31, ptr noundef @.str.70)
  br label %33

33:                                               ; preds = %29
  store i8 1, ptr %9, align 1
  %34 = load i8, ptr %9, align 1
  %35 = trunc i8 %34 to i1
  %36 = zext i1 %35 to i8
  store i8 %36, ptr %9, align 1
  br label %37

37:                                               ; preds = %33
  br label %38

38:                                               ; preds = %37
  store i32 -1, ptr %8, align 4
  br label %120

39:                                               ; No predecessors!
  br label %40

40:                                               ; preds = %39
  br label %41

41:                                               ; preds = %40, %2
  br label %42

42:                                               ; preds = %41
  store i64 0, ptr %10, align 8
  %43 = load ptr, ptr %7, align 8
  %44 = load ptr, ptr %43, align 8
  %45 = getelementptr inbounds i8, ptr %44, i64 8
  store ptr %45, ptr %43, align 8
  store i64 0, ptr %11, align 8
  br label %46

46:                                               ; preds = %58, %42
  %47 = load i64, ptr %11, align 8
  %48 = icmp ult i64 %47, 8
  br i1 %48, label %49, label %61

49:                                               ; preds = %46
  %50 = load i64, ptr %10, align 8
  %51 = shl i64 %50, 8
  %52 = load ptr, ptr %7, align 8
  %53 = load ptr, ptr %52, align 8
  %54 = getelementptr inbounds i8, ptr %53, i32 -1
  store ptr %54, ptr %52, align 8
  %55 = load i8, ptr %54, align 1
  %56 = zext i8 %55 to i64
  %57 = or i64 %51, %56
  store i64 %57, ptr %10, align 8
  br label %58

58:                                               ; preds = %49
  %59 = load i64, ptr %11, align 8
  %60 = add i64 %59, 1
  store i64 %60, ptr %11, align 8
  br label %46

61:                                               ; preds = %46
  %62 = load ptr, ptr %5, align 8
  %63 = getelementptr inbounds double, ptr %62, i64 0
  call void @llvm.memcpy.p0.p0.i64(ptr align 8 %63, ptr align 8 %10, i64 8, i1 false)
  %64 = load ptr, ptr %7, align 8
  %65 = load ptr, ptr %64, align 8
  %66 = getelementptr inbounds i8, ptr %65, i64 8
  store ptr %66, ptr %64, align 8
  br label %67

67:                                               ; preds = %61
  br label %68

68:                                               ; preds = %67
  store i64 0, ptr %12, align 8
  %69 = load ptr, ptr %7, align 8
  %70 = load ptr, ptr %69, align 8
  %71 = getelementptr inbounds i8, ptr %70, i64 8
  store ptr %71, ptr %69, align 8
  store i64 0, ptr %13, align 8
  br label %72

72:                                               ; preds = %84, %68
  %73 = load i64, ptr %13, align 8
  %74 = icmp ult i64 %73, 8
  br i1 %74, label %75, label %87

75:                                               ; preds = %72
  %76 = load i64, ptr %12, align 8
  %77 = shl i64 %76, 8
  %78 = load ptr, ptr %7, align 8
  %79 = load ptr, ptr %78, align 8
  %80 = getelementptr inbounds i8, ptr %79, i32 -1
  store ptr %80, ptr %78, align 8
  %81 = load i8, ptr %80, align 1
  %82 = zext i8 %81 to i64
  %83 = or i64 %77, %82
  store i64 %83, ptr %12, align 8
  br label %84

84:                                               ; preds = %75
  %85 = load i64, ptr %13, align 8
  %86 = add i64 %85, 1
  store i64 %86, ptr %13, align 8
  br label %72

87:                                               ; preds = %72
  %88 = load ptr, ptr %5, align 8
  %89 = getelementptr inbounds double, ptr %88, i64 1
  call void @llvm.memcpy.p0.p0.i64(ptr align 8 %89, ptr align 8 %12, i64 8, i1 false)
  %90 = load ptr, ptr %7, align 8
  %91 = load ptr, ptr %90, align 8
  %92 = getelementptr inbounds i8, ptr %91, i64 8
  store ptr %92, ptr %90, align 8
  br label %93

93:                                               ; preds = %87
  br label %94

94:                                               ; preds = %93
  store i64 0, ptr %14, align 8
  %95 = load ptr, ptr %7, align 8
  %96 = load ptr, ptr %95, align 8
  %97 = getelementptr inbounds i8, ptr %96, i64 8
  store ptr %97, ptr %95, align 8
  store i64 0, ptr %15, align 8
  br label %98

98:                                               ; preds = %110, %94
  %99 = load i64, ptr %15, align 8
  %100 = icmp ult i64 %99, 8
  br i1 %100, label %101, label %113

101:                                              ; preds = %98
  %102 = load i64, ptr %14, align 8
  %103 = shl i64 %102, 8
  %104 = load ptr, ptr %7, align 8
  %105 = load ptr, ptr %104, align 8
  %106 = getelementptr inbounds i8, ptr %105, i32 -1
  store ptr %106, ptr %104, align 8
  %107 = load i8, ptr %106, align 1
  %108 = zext i8 %107 to i64
  %109 = or i64 %103, %108
  store i64 %109, ptr %14, align 8
  br label %110

110:                                              ; preds = %101
  %111 = load i64, ptr %15, align 8
  %112 = add i64 %111, 1
  store i64 %112, ptr %15, align 8
  br label %98

113:                                              ; preds = %98
  %114 = load ptr, ptr %5, align 8
  %115 = getelementptr inbounds double, ptr %114, i64 2
  call void @llvm.memcpy.p0.p0.i64(ptr align 8 %115, ptr align 8 %14, i64 8, i1 false)
  %116 = load ptr, ptr %7, align 8
  %117 = load ptr, ptr %116, align 8
  %118 = getelementptr inbounds i8, ptr %117, i64 8
  store ptr %118, ptr %116, align 8
  br label %119

119:                                              ; preds = %113
  br label %120

120:                                              ; preds = %119, %38
  %121 = load i32, ptr %8, align 4
  ret i32 %121
}