; Function Attrs: nounwind uwtable
define internal range(i32 -1, 1) i32 @H5P__dxfr_btree_split_ratio_dec(ptr nocapture noundef %0, ptr nocapture noundef writeonly %1) #0 {
  %3 = load ptr, ptr %0, align 8
  %4 = getelementptr inbounds i8, ptr %3, i64 1
  store ptr %4, ptr %0, align 8
  %5 = load i8, ptr %3, align 1
  %.not = icmp eq i8 %5, 8
  br i1 %.not, label %10, label %6

6:                                                ; preds = %2
  %7 = load i64, ptr @H5E_PLIST_g, align 8
  %8 = load i64, ptr @H5E_BADVALUE_g, align 8
  %9 = tail call i32 (ptr, ptr, i32, i64, i64, ptr, ...) @H5E_printf_stack(ptr noundef nonnull @.str.1, ptr noundef nonnull @__func__.H5P__dxfr_btree_split_ratio_dec, i32 noundef 633, i64 noundef %7, i64 noundef %8, ptr noundef nonnull @.str.70) #8
  br label %47

10:                                               ; preds = %2
  %11 = getelementptr inbounds i8, ptr %3, i64 9
  br label %12

12:                                               ; preds = %10, %12
  %.03135 = phi i64 [ 0, %10 ], [ %19, %12 ]
  %.03234 = phi i64 [ 0, %10 ], [ %18, %12 ]
  %13 = phi ptr [ %11, %10 ], [ %15, %12 ]
  %14 = shl i64 %.03234, 8
  %15 = getelementptr inbounds i8, ptr %13, i64 -1
  store ptr %15, ptr %0, align 8
  %16 = load i8, ptr %15, align 1
  %17 = zext i8 %16 to i64
  %18 = or disjoint i64 %14, %17
  %19 = add nuw nsw i64 %.03135, 1
  %exitcond.not = icmp eq i64 %19, 8
  br i1 %exitcond.not, label %20, label %12

20:                                               ; preds = %12
  store i64 %18, ptr %1, align 8
  %21 = load ptr, ptr %0, align 8
  %22 = getelementptr inbounds i8, ptr %21, i64 16
  br label %23

23:                                               ; preds = %20, %23
  %.02938 = phi i64 [ 0, %20 ], [ %30, %23 ]
  %.03037 = phi i64 [ 0, %20 ], [ %29, %23 ]
  %24 = phi ptr [ %22, %20 ], [ %26, %23 ]
  %25 = shl i64 %.03037, 8
  %26 = getelementptr inbounds i8, ptr %24, i64 -1
  store ptr %26, ptr %0, align 8
  %27 = load i8, ptr %26, align 1
  %28 = zext i8 %27 to i64
  %29 = or disjoint i64 %25, %28
  %30 = add nuw nsw i64 %.02938, 1
  %exitcond44.not = icmp eq i64 %30, 8
  br i1 %exitcond44.not, label %31, label %23

31:                                               ; preds = %23
  %32 = getelementptr inbounds i8, ptr %1, i64 8
  store i64 %29, ptr %32, align 8
  %33 = load ptr, ptr %0, align 8
  %34 = getelementptr inbounds i8, ptr %33, i64 16
  br label %35

35:                                               ; preds = %31, %35
  %.041 = phi i64 [ 0, %31 ], [ %42, %35 ]
  %.02840 = phi i64 [ 0, %31 ], [ %41, %35 ]
  %36 = phi ptr [ %34, %31 ], [ %38, %35 ]
  %37 = shl i64 %.02840, 8
  %38 = getelementptr inbounds i8, ptr %36, i64 -1
  store ptr %38, ptr %0, align 8
  %39 = load i8, ptr %38, align 1
  %40 = zext i8 %39 to i64
  %41 = or disjoint i64 %37, %40
  %42 = add nuw nsw i64 %.041, 1
  %exitcond45.not = icmp eq i64 %42, 8
  br i1 %exitcond45.not, label %43, label %35

43:                                               ; preds = %35
  %44 = getelementptr inbounds i8, ptr %1, i64 16
  store i64 %41, ptr %44, align 8
  %45 = load ptr, ptr %0, align 8
  %46 = getelementptr inbounds i8, ptr %45, i64 8
  store ptr %46, ptr %0, align 8
  br label %47

47:                                               ; preds = %43, %6
  %.033 = phi i32 [ -1, %6 ], [ 0, %43 ]
  ret i32 %.033
}